target datalayout = "e-m:e-p270:32:32-p271:32:32-p272:64:64-i64:64-i128:128-f80:128-n8:16:32:64-S128"
target triple = "x86_64-pc-linux-gnu"

%struct.ScanKeyData = type { i32, i16, i16, i32, i32, %struct.FmgrInfo, i64 }
%struct.FmgrInfo = type { ptr, i32, i16, i8, i8, i8, ptr, ptr, ptr }
%struct.HeapTupleData = type { i32, %struct.ItemPointerData, i32, ptr }
%struct.ItemPointerData = type { %struct.BlockIdData, i16 }
%struct.BlockIdData = type { i16, i16 }
%struct.HeapTupleHeaderData = type { %union.anon, %struct.ItemPointerData, i16, i16, i8, [0 x i8] }
%union.anon = type { %struct.HeapTupleFields }
%struct.HeapTupleFields = type { i32, i32, %union.anon.0 }
%union.anon.0 = type { i32 }
%struct.FormData_pg_depend = type { i32, i32, i32, i32, i32, i32, i8 }

; Function Attrs: inlinehint nounwind uwtable
define internal ptr @GETSTRUCT(ptr noundef %0) #6 {
  %2 = alloca ptr, align 8
  store ptr %0, ptr %2, align 8
  %3 = load ptr, ptr %2, align 8
  %4 = getelementptr inbounds nuw %struct.HeapTupleData, ptr %3, i32 0, i32 3
  %5 = load ptr, ptr %4, align 8
  %6 = load ptr, ptr %2, align 8
  %7 = getelementptr inbounds nuw %struct.HeapTupleData, ptr %6, i32 0, i32 3
  %8 = load ptr, ptr %7, align 8
  %9 = getelementptr inbounds nuw %struct.HeapTupleHeaderData, ptr %8, i32 0, i32 4
  %10 = load i8, ptr %9, align 2
  %11 = zext i8 %10 to i32
  %12 = sext i32 %11 to i64
  %13 = getelementptr inbounds i8, ptr %5, i64 %12
  ret ptr %13
}

; Function Attrs: inlinehint nounwind uwtable
define internal i64 @Int32GetDatum(i32 noundef %0) #6 {
  %2 = alloca i32, align 4
  store i32 %0, ptr %2, align 4
  %3 = load i32, ptr %2, align 4
  %4 = sext i32 %3 to i64
  ret i64 %4
}

; Function Attrs: inlinehint nounwind uwtable
define internal i64 @ObjectIdGetDatum(i32 noundef %0) #6 {
  %2 = alloca i32, align 4
  store i32 %0, ptr %2, align 4
  %3 = load i32, ptr %2, align 4
  %4 = zext i32 %3 to i64
  ret i64 %4
}

; Function Attrs: nounwind uwtable
define internal void @drop_parent_dependency(i32 noundef %0, i32 noundef %1, i32 noundef %2, i32 noundef %3) #0 {
  %5 = alloca i32, align 4
  %6 = alloca i32, align 4
  %7 = alloca i32, align 4
  %8 = alloca i32, align 4
  %9 = alloca ptr, align 8
  %10 = alloca ptr, align 8
  %11 = alloca [3 x %struct.ScanKeyData], align 16
  %12 = alloca ptr, align 8
  %13 = alloca ptr, align 8
  store i32 %0, ptr %5, align 4
  store i32 %1, ptr %6, align 4
  store i32 %2, ptr %7, align 4
  store i32 %3, ptr %8, align 4
  call void @llvm.lifetime.start.p0(i64 8, ptr %9) #12
  call void @llvm.lifetime.start.p0(i64 8, ptr %10) #12
  call void @llvm.lifetime.start.p0(i64 216, ptr %11) #12
  call void @llvm.lifetime.start.p0(i64 8, ptr %12) #12
  %14 = call ptr @table_open(i32 noundef 2608, i32 noundef 3)
  store ptr %14, ptr %9, align 8
  %15 = getelementptr inbounds [3 x %struct.ScanKeyData], ptr %11, i64 0, i64 0
  %16 = call i64 @ObjectIdGetDatum(i32 noundef 1259)
  call void @ScanKeyInit(ptr noundef %15, i16 noundef signext 1, i16 noundef zeroext 3, i32 noundef 184, i64 noundef %16)
  %17 = getelementptr inbounds [3 x %struct.ScanKeyData], ptr %11, i64 0, i64 1
  %18 = load i32, ptr %5, align 4
  %19 = call i64 @ObjectIdGetDatum(i32 noundef %18)
  call void @ScanKeyInit(ptr noundef %17, i16 noundef signext 2, i16 noundef zeroext 3, i32 noundef 184, i64 noundef %19)
  %20 = getelementptr inbounds [3 x %struct.ScanKeyData], ptr %11, i64 0, i64 2
  %21 = call i64 @Int32GetDatum(i32 noundef 0)
  call void @ScanKeyInit(ptr noundef %20, i16 noundef signext 3, i16 noundef zeroext 3, i32 noundef 65, i64 noundef %21)
  %22 = load ptr, ptr %9, align 8
  %23 = getelementptr inbounds [3 x %struct.ScanKeyData], ptr %11, i64 0, i64 0
  %24 = call ptr @systable_beginscan(ptr noundef %22, i32 noundef 2673, i1 noundef zeroext true, ptr noundef null, i32 noundef 3, ptr noundef %23)
  store ptr %24, ptr %10, align 8
  br label %25

25:                                               ; preds = %59, %4
  %26 = load ptr, ptr %10, align 8
  %27 = call ptr @systable_getnext(ptr noundef %26)
  store ptr %27, ptr %12, align 8
  %28 = icmp ne ptr %27, null
  br i1 %28, label %29, label %60

29:                                               ; preds = %25
  call void @llvm.lifetime.start.p0(i64 8, ptr %13) #12
  %30 = load ptr, ptr %12, align 8
  %31 = call ptr @GETSTRUCT(ptr noundef %30)
  store ptr %31, ptr %13, align 8
  %32 = load ptr, ptr %13, align 8
  %33 = getelementptr inbounds nuw %struct.FormData_pg_depend, ptr %32, i32 0, i32 3
  %34 = load i32, ptr %33, align 4
  %35 = load i32, ptr %6, align 4
  %36 = icmp eq i32 %34, %35
  br i1 %36, label %37, label %59

37:                                               ; preds = %29
  %38 = load ptr, ptr %13, align 8
  %39 = getelementptr inbounds nuw %struct.FormData_pg_depend, ptr %38, i32 0, i32 4
  %40 = load i32, ptr %39, align 4
  %41 = load i32, ptr %7, align 4
  %42 = icmp eq i32 %40, %41
  br i1 %42, label %43, label %59

43:                                               ; preds = %37
  %44 = load ptr, ptr %13, align 8
  %45 = getelementptr inbounds nuw %struct.FormData_pg_depend, ptr %44, i32 0, i32 5
  %46 = load i32, ptr %45, align 4
  %47 = icmp eq i32 %46, 0
  br i1 %47, label %48, label %59

48:                                               ; preds = %43
  %49 = load ptr, ptr %13, align 8
  %50 = getelementptr inbounds nuw %struct.FormData_pg_depend, ptr %49, i32 0, i32 6
  %51 = load i8, ptr %50, align 4
  %52 = sext i8 %51 to i32
  %53 = load i32, ptr %8, align 4
  %54 = icmp eq i32 %52, %53
  br i1 %54, label %55, label %59

55:                                               ; preds = %48
  %56 = load ptr, ptr %9, align 8
  %57 = load ptr, ptr %12, align 8
  %58 = getelementptr inbounds nuw %struct.HeapTupleData, ptr %57, i32 0, i32 1
  call void @CatalogTupleDelete(ptr noundef %56, ptr noundef %58)
  br label %59

59:                                               ; preds = %55, %48, %43, %37, %29
  call void @llvm.lifetime.end.p0(i64 8, ptr %13) #12
  br label %25, !llvm.loop !170

60:                                               ; preds = %25
  %61 = load ptr, ptr %10, align 8
  call void @systable_endscan(ptr noundef %61)
  %62 = load ptr, ptr %9, align 8
  call void @table_close(ptr noundef %62, i32 noundef 3)
  call void @llvm.lifetime.end.p0(i64 8, ptr %12) #12
  call void @llvm.lifetime.end.p0(i64 216, ptr %11) #12
  call void @llvm.lifetime.end.p0(i64 8, ptr %10) #12
  call void @llvm.lifetime.end.p0(i64 8, ptr %9) #12
  ret void
}