; Function Attrs: nounwind uwtable
define internal fastcc void @drop_parent_dependency(i32 noundef %0, i32 noundef range(i32 1247, 1260) %1, i32 noundef %2, i32 noundef range(i32 97, 111) %3) unnamed_addr #0 {
  %5 = alloca [3 x %struct.ScanKeyData], align 16
  call void @llvm.lifetime.start.p0(i64 216, ptr nonnull %5) #15
  %6 = tail call ptr @table_open(i32 noundef 2608, i32 noundef 3) #15
  call void @ScanKeyInit(ptr noundef nonnull %5, i16 noundef signext 1, i16 noundef zeroext 3, i32 noundef 184, i64 noundef 1259) #15
  %7 = getelementptr inbounds nuw i8, ptr %5, i64 72
  %8 = zext i32 %0 to i64
  call void @ScanKeyInit(ptr noundef nonnull %7, i16 noundef signext 2, i16 noundef zeroext 3, i32 noundef 184, i64 noundef %8) #15
  %9 = getelementptr inbounds nuw i8, ptr %5, i64 144
  call void @ScanKeyInit(ptr noundef nonnull %9, i16 noundef signext 3, i16 noundef zeroext 3, i32 noundef 65, i64 noundef 0) #15
  %10 = call ptr @systable_beginscan(ptr noundef %6, i32 noundef 2673, i1 noundef zeroext true, ptr noundef null, i32 noundef 3, ptr noundef nonnull %5) #15
  %11 = call ptr @systable_getnext(ptr noundef %10) #15
  %.not14 = icmp eq ptr %11, null
  br i1 %.not14, label %._crit_edge, label %.lr.ph

.lr.ph:                                           ; preds = %4, %36
  %12 = phi ptr [ %37, %36 ], [ %11, %4 ]
  %13 = getelementptr i8, ptr %12, i64 16
  %.val = load ptr, ptr %13, align 8
  %14 = getelementptr inbounds nuw i8, ptr %.val, i64 22
  %15 = load i8, ptr %14, align 2
  %16 = zext i8 %15 to i64
  %17 = getelementptr inbounds nuw i8, ptr %.val, i64 %16
  %18 = getelementptr inbounds nuw i8, ptr %17, i64 12
  %19 = load i32, ptr %18, align 4
  %20 = icmp eq i32 %19, %1
  br i1 %20, label %21, label %36

21:                                               ; preds = %.lr.ph
  %22 = getelementptr inbounds nuw i8, ptr %17, i64 16
  %23 = load i32, ptr %22, align 4
  %24 = icmp eq i32 %23, %2
  br i1 %24, label %25, label %36

25:                                               ; preds = %21
  %26 = getelementptr inbounds nuw i8, ptr %17, i64 20
  %27 = load i32, ptr %26, align 4
  %28 = icmp eq i32 %27, 0
  br i1 %28, label %29, label %36

29:                                               ; preds = %25
  %30 = getelementptr inbounds nuw i8, ptr %17, i64 24
  %31 = load i8, ptr %30, align 4
  %32 = sext i8 %31 to i32
  %33 = icmp eq i32 %3, %32
  br i1 %33, label %34, label %36

34:                                               ; preds = %29
  %35 = getelementptr inbounds nuw i8, ptr %12, i64 4
  call void @CatalogTupleDelete(ptr noundef %6, ptr noundef nonnull %35) #15
  br label %36

36:                                               ; preds = %34, %29, %25, %21, %.lr.ph
  %37 = call ptr @systable_getnext(ptr noundef %10) #15
  %.not = icmp eq ptr %37, null
  br i1 %.not, label %._crit_edge, label %.lr.ph, !llvm.loop !58

._crit_edge:                                      ; preds = %36, %4
  call void @systable_endscan(ptr noundef %10) #15
  call void @table_close(ptr noundef %6, i32 noundef 3) #15
  call void @llvm.lifetime.end.p0(i64 216, ptr nonnull %5) #15
  ret void
}